target datalayout = "e-m:e-p270:32:32-p271:32:32-p272:64:64-i64:64-i128:128-f80:128-n8:16:32:64-S128"
target triple = "x86_64-pc-linux-gnu"

%union.SourceSpan = type { i64 }
%struct.Int = type { %struct.Int128_, i32 }
%struct.Int128_ = type { i64, i64 }
%struct.VHeader_ = type { i32, i32, [0 x i8] }
%struct.Expr_ = type { ptr, %union.SourceSpan, i16, %union.anon.61 }
%union.anon.61 = type { %struct.ExprAnySwitch }
%struct.ExprAnySwitch = type { i8, %union.anon.63 }
%union.anon.63 = type { %struct.anon.64 }
%struct.anon.64 = type { ptr, %union.SourceSpan, ptr }
%struct.Type_ = type { i32, ptr, ptr, ptr, %union.anon.86, ptr, ptr, %union.anon.88 }
%union.anon.86 = type { ptr }
%union.anon.88 = type { %struct.TypeFunction }
%struct.TypeFunction = type { ptr, ptr, ptr }
%struct.ExprConst = type { i16, %union.anon.70 }
%union.anon.70 = type { %struct.Int }
%struct.Decl_ = type { ptr, ptr, %union.SourceSpan, i64, %union.anon, i32, %union.anon.0, i64, ptr, ptr, ptr, %union.anon.1 }
%union.anon = type { ptr }
%union.anon.0 = type { i16 }
%union.anon.1 = type { %struct.FuncDecl }
%struct.FuncDecl = type { i32, [4 x i8], %struct.Signature_, i32, i32, %union.anon.8 }
%struct.Signature_ = type <{ %struct.CalleeAttributes, i16, i8, i32, i32, [4 x i8], ptr }>
%struct.CalleeAttributes = type { i8 }
%union.anon.8 = type { %struct.anon.9 }
%struct.anon.9 = type { i16, %union.anon.10 }
%union.anon.10 = type { ptr }
%struct.anon.2 = type { ptr, ptr, %union.anon.3 }
%union.anon.3 = type { %struct.BitStructDecl }
%struct.BitStructDecl = type { ptr, ptr, i8 }
%struct.StructDecl = type { i32, ptr, i32, i16 }
%struct.ConstInitializer_ = type { i32, ptr, %union.anon.90 }
%union.anon.90 = type { %struct.anon.91 }
%struct.anon.91 = type { ptr, i32 }

@.str.33 = private unnamed_addr constant [36 x i8] c"FATAL ERROR %s -> in %s @ in %s:%d \00", align 1
@.str.34 = private unnamed_addr constant [22 x i8] c"Should be unreachable\00", align 1
@.str.35 = private unnamed_addr constant [110 x i8] c"generated/home/dtcxzyw/WorkSpace/Projects/compilers/llvm-opt-benchmark/bench/c3c/c3c/src/compiler/sema_expr.c\00", align 1
@__func__.sema_expr_fold_to_member = private unnamed_addr constant [25 x i8] c"sema_expr_fold_to_member\00", align 1

; Function Attrs: nounwind uwtable
define internal zeroext i1 @sema_expr_fold_to_member(ptr noundef %0, ptr noundef %1, ptr noundef %2) #0 {
  %4 = alloca ptr, align 8
  %5 = alloca ptr, align 8
  %6 = alloca %union.SourceSpan, align 8
  %7 = alloca i32, align 4
  %8 = alloca ptr, align 8
  %9 = alloca ptr, align 8
  %10 = alloca i1, align 1
  %11 = alloca ptr, align 8
  %12 = alloca ptr, align 8
  %13 = alloca ptr, align 8
  %14 = alloca ptr, align 8
  %15 = alloca ptr, align 8
  %16 = alloca ptr, align 8
  %17 = alloca i32, align 4
  %18 = alloca i32, align 4
  store ptr %0, ptr %11, align 8
  store ptr %1, ptr %12, align 8
  store ptr %2, ptr %13, align 8
  %19 = load ptr, ptr %12, align 8
  %20 = getelementptr inbounds %struct.Expr_, ptr %19, i32 0, i32 3
  %21 = getelementptr inbounds %struct.ExprConst, ptr %20, i32 0, i32 1
  %22 = load ptr, ptr %21, align 8
  store ptr %22, ptr %14, align 8
  %23 = load ptr, ptr %14, align 8
  %24 = getelementptr inbounds %struct.ConstInitializer_, ptr %23, i32 0, i32 0
  %25 = load i32, ptr %24, align 8
  switch i32 %25, label %104 [
    i32 0, label %26
    i32 1, label %28
    i32 2, label %76
    i32 3, label %101
    i32 4, label %101
    i32 5, label %101
    i32 6, label %101
  ]

26:                                               ; preds = %3
  %27 = load ptr, ptr %14, align 8
  store ptr %27, ptr %15, align 8
  br label %107

28:                                               ; preds = %3
  %29 = load ptr, ptr %14, align 8
  %30 = getelementptr inbounds %struct.ConstInitializer_, ptr %29, i32 0, i32 1
  %31 = load ptr, ptr %30, align 8
  %32 = getelementptr inbounds %struct.Type_, ptr %31, i32 0, i32 7
  %33 = load ptr, ptr %32, align 8
  %34 = getelementptr inbounds %struct.Decl_, ptr %33, i32 0, i32 11
  %35 = getelementptr inbounds %struct.anon.2, ptr %34, i32 0, i32 2
  %36 = getelementptr inbounds %struct.StructDecl, ptr %35, i32 0, i32 1
  %37 = load ptr, ptr %36, align 8
  store ptr %37, ptr %16, align 8
  store i32 0, ptr %17, align 4
  %38 = load ptr, ptr %16, align 8
  store ptr %38, ptr %8, align 8
  %39 = load ptr, ptr %8, align 8
  %40 = icmp ne ptr %39, null
  br i1 %40, label %42, label %41

41:                                               ; preds = %28
  store i32 0, ptr %7, align 4
  br label %47

42:                                               ; preds = %28
  %43 = load ptr, ptr %8, align 8
  store ptr %43, ptr %9, align 8
  %44 = load ptr, ptr %9, align 8
  %45 = getelementptr inbounds %struct.VHeader_, ptr %44, i64 -1
  %46 = load i32, ptr %45, align 4
  store i32 %46, ptr %7, align 4
  br label %47

47:                                               ; preds = %42, %41
  %48 = load i32, ptr %7, align 4
  store i32 %48, ptr %18, align 4
  br label %49

49:                                               ; preds = %70, %47
  %50 = load i32, ptr %17, align 4
  %51 = load i32, ptr %18, align 4
  %52 = icmp ult i32 %50, %51
  br i1 %52, label %53, label %73

53:                                               ; preds = %49
  %54 = load ptr, ptr %16, align 8
  %55 = load i32, ptr %17, align 4
  %56 = zext i32 %55 to i64
  %57 = getelementptr inbounds ptr, ptr %54, i64 %56
  %58 = load ptr, ptr %57, align 8
  %59 = load ptr, ptr %13, align 8
  %60 = icmp eq ptr %58, %59
  br i1 %60, label %61, label %69

61:                                               ; preds = %53
  %62 = load ptr, ptr %14, align 8
  %63 = getelementptr inbounds %struct.ConstInitializer_, ptr %62, i32 0, i32 2
  %64 = load ptr, ptr %63, align 8
  %65 = load i32, ptr %17, align 4
  %66 = zext i32 %65 to i64
  %67 = getelementptr inbounds ptr, ptr %64, i64 %66
  %68 = load ptr, ptr %67, align 8
  store ptr %68, ptr %15, align 8
  br label %107

69:                                               ; preds = %53
  br label %70

70:                                               ; preds = %69
  %71 = load i32, ptr %17, align 4
  %72 = add i32 %71, 1
  store i32 %72, ptr %17, align 4
  br label %49, !llvm.loop !40

73:                                               ; preds = %49
  br label %74

74:                                               ; preds = %73
  call void (ptr, ...) @error_exit(ptr noundef @.str.33, ptr noundef @.str.34, ptr noundef @__func__.sema_expr_fold_to_member, ptr noundef @.str.35, i32 noundef 3655) #6
  unreachable

75:                                               ; No predecessors!
  br label %76

76:                                               ; preds = %75, %3
  %77 = load ptr, ptr %14, align 8
  %78 = getelementptr inbounds %struct.ConstInitializer_, ptr %77, i32 0, i32 1
  %79 = load ptr, ptr %78, align 8
  %80 = getelementptr inbounds %struct.Type_, ptr %79, i32 0, i32 7
  %81 = load ptr, ptr %80, align 8
  %82 = getelementptr inbounds %struct.Decl_, ptr %81, i32 0, i32 11
  %83 = getelementptr inbounds %struct.anon.2, ptr %82, i32 0, i32 2
  %84 = getelementptr inbounds %struct.StructDecl, ptr %83, i32 0, i32 1
  %85 = load ptr, ptr %84, align 8
  %86 = load ptr, ptr %14, align 8
  %87 = getelementptr inbounds %struct.ConstInitializer_, ptr %86, i32 0, i32 2
  %88 = getelementptr inbounds %struct.anon.91, ptr %87, i32 0, i32 1
  %89 = load i32, ptr %88, align 8
  %90 = sext i32 %89 to i64
  %91 = getelementptr inbounds ptr, ptr %85, i64 %90
  %92 = load ptr, ptr %91, align 8
  %93 = load ptr, ptr %13, align 8
  %94 = icmp ne ptr %92, %93
  br i1 %94, label %95, label %96

95:                                               ; preds = %76
  store i1 false, ptr %10, align 1
  br label %146

96:                                               ; preds = %76
  %97 = load ptr, ptr %14, align 8
  %98 = getelementptr inbounds %struct.ConstInitializer_, ptr %97, i32 0, i32 2
  %99 = getelementptr inbounds %struct.anon.91, ptr %98, i32 0, i32 0
  %100 = load ptr, ptr %99, align 8
  store ptr %100, ptr %15, align 8
  br label %107

101:                                              ; preds = %3, %3, %3, %3
  br label %102

102:                                              ; preds = %101
  call void (ptr, ...) @error_exit(ptr noundef @.str.33, ptr noundef @.str.34, ptr noundef @__func__.sema_expr_fold_to_member, ptr noundef @.str.35, i32 noundef 3665) #6
  unreachable

103:                                              ; No predecessors!
  br label %104

104:                                              ; preds = %103, %3
  br label %105

105:                                              ; preds = %104
  call void (ptr, ...) @error_exit(ptr noundef @.str.33, ptr noundef @.str.34, ptr noundef @__func__.sema_expr_fold_to_member, ptr noundef @.str.35, i32 noundef 3667) #6
  unreachable

106:                                              ; No predecessors!
  br label %107

107:                                              ; preds = %106, %96, %61, %26
  %108 = load ptr, ptr %15, align 8
  %109 = getelementptr inbounds %struct.ConstInitializer_, ptr %108, i32 0, i32 0
  %110 = load i32, ptr %109, align 8
  switch i32 %110, label %145 [
    i32 0, label %111
    i32 1, label %116
    i32 2, label %116
    i32 4, label %116
    i32 5, label %116
    i32 6, label %131
    i32 3, label %134
  ]

111:                                              ; preds = %107
  %112 = load ptr, ptr %11, align 8
  %113 = load ptr, ptr %15, align 8
  %114 = getelementptr inbounds %struct.ConstInitializer_, ptr %113, i32 0, i32 1
  %115 = load ptr, ptr %114, align 8
  call void @expr_rewrite_to_const_zero(ptr noundef %112, ptr noundef %115)
  br label %145

116:                                              ; preds = %107, %107, %107, %107
  %117 = load ptr, ptr %11, align 8
  %118 = getelementptr inbounds %struct.Expr_, ptr %117, i32 0, i32 3
  %119 = load i16, ptr %118, align 8
  %120 = and i16 %119, -256
  %121 = or i16 %120, 9
  store i16 %121, ptr %118, align 8
  %122 = load ptr, ptr %14, align 8
  %123 = load ptr, ptr %11, align 8
  %124 = getelementptr inbounds %struct.Expr_, ptr %123, i32 0, i32 3
  %125 = getelementptr inbounds %struct.ExprConst, ptr %124, i32 0, i32 1
  store ptr %122, ptr %125, align 8
  %126 = load ptr, ptr %14, align 8
  %127 = getelementptr inbounds %struct.ConstInitializer_, ptr %126, i32 0, i32 1
  %128 = load ptr, ptr %127, align 8
  %129 = load ptr, ptr %11, align 8
  %130 = getelementptr inbounds %struct.Expr_, ptr %129, i32 0, i32 0
  store ptr %128, ptr %130, align 8
  br label %145

131:                                              ; preds = %107
  br label %132

132:                                              ; preds = %131
  call void (ptr, ...) @error_exit(ptr noundef @.str.33, ptr noundef @.str.34, ptr noundef @__func__.sema_expr_fold_to_member, ptr noundef @.str.35, i32 noundef 3683) #6
  unreachable

133:                                              ; No predecessors!
  br label %134

134:                                              ; preds = %133, %107
  %135 = load ptr, ptr %11, align 8
  %136 = load ptr, ptr %15, align 8
  %137 = getelementptr inbounds %struct.ConstInitializer_, ptr %136, i32 0, i32 2
  %138 = load ptr, ptr %137, align 8
  store ptr %135, ptr %4, align 8
  store ptr %138, ptr %5, align 8
  %139 = load ptr, ptr %4, align 8
  %140 = getelementptr inbounds %struct.Expr_, ptr %139, i32 0, i32 1
  call void @llvm.memcpy.p0.p0.i64(ptr align 8 %6, ptr align 8 %140, i64 8, i1 false)
  %141 = load ptr, ptr %4, align 8
  %142 = load ptr, ptr %5, align 8
  call void @llvm.memcpy.p0.p0.i64(ptr align 8 %141, ptr align 8 %142, i64 56, i1 false)
  %143 = load ptr, ptr %4, align 8
  %144 = getelementptr inbounds %struct.Expr_, ptr %143, i32 0, i32 1
  call void @llvm.memcpy.p0.p0.i64(ptr align 8 %144, ptr align 8 %6, i64 8, i1 false)
  br label %145

145:                                              ; preds = %134, %116, %111, %107
  store i1 true, ptr %10, align 1
  br label %146

146:                                              ; preds = %145, %95
  %147 = load i1, ptr %10, align 1
  ret i1 %147
}