; Function Attrs: nounwind uwtable
define internal fastcc noundef zeroext i1 @sema_expr_fold_to_member(ptr noundef %0, ptr %.32.val, ptr noundef readnone %1) unnamed_addr #0 {
  %3 = load i32, ptr %.32.val, align 8
  switch i32 %3, label %37 [
    i32 0, label %.thread
    i32 1, label %4
    i32 2, label %22
    i32 3, label %36
    i32 4, label %36
    i32 5, label %36
    i32 6, label %36
  ]

4:                                                ; preds = %2
  %5 = getelementptr inbounds i8, ptr %.32.val, i64 8
  %6 = load ptr, ptr %5, align 8
  %7 = getelementptr inbounds i8, ptr %6, i64 56
  %8 = load ptr, ptr %7, align 8
  %9 = getelementptr inbounds i8, ptr %8, i64 104
  %10 = load ptr, ptr %9, align 8
  %.not40 = icmp eq ptr %10, null
  br i1 %.not40, label %._crit_edge, label %11

11:                                               ; preds = %4
  %12 = getelementptr inbounds i8, ptr %10, i64 -8
  %13 = load i32, ptr %12, align 4
  %.not4 = icmp eq i32 %13, 0
  br i1 %.not4, label %._crit_edge, label %.lr.ph.preheader

.lr.ph.preheader:                                 ; preds = %11
  %wide.trip.count = zext i32 %13 to i64
  br label %.lr.ph

14:                                               ; preds = %.lr.ph
  %indvars.iv.next = add nuw nsw i64 %indvars.iv, 1
  %exitcond.not = icmp eq i64 %indvars.iv.next, %wide.trip.count
  br i1 %exitcond.not, label %._crit_edge, label %.lr.ph, !llvm.loop !50

.lr.ph:                                           ; preds = %.lr.ph.preheader, %14
  %indvars.iv = phi i64 [ 0, %.lr.ph.preheader ], [ %indvars.iv.next, %14 ]
  %15 = getelementptr inbounds ptr, ptr %10, i64 %indvars.iv
  %16 = load ptr, ptr %15, align 8
  %17 = icmp eq ptr %16, %1
  br i1 %17, label %18, label %14

18:                                               ; preds = %.lr.ph
  %19 = getelementptr inbounds i8, ptr %.32.val, i64 16
  %20 = load ptr, ptr %19, align 8
  %21 = getelementptr inbounds ptr, ptr %20, i64 %indvars.iv
  br label %38

._crit_edge:                                      ; preds = %14, %4, %11
  tail call void (ptr, ...) @error_exit(ptr noundef nonnull @.str.33, ptr noundef nonnull @.str.34, ptr noundef nonnull @__func__.sema_expr_fold_to_member, ptr noundef nonnull @.str.35, i32 noundef 3655) #14
  unreachable

22:                                               ; preds = %2
  %23 = getelementptr inbounds i8, ptr %.32.val, i64 8
  %24 = load ptr, ptr %23, align 8
  %25 = getelementptr inbounds i8, ptr %24, i64 56
  %26 = load ptr, ptr %25, align 8
  %27 = getelementptr inbounds i8, ptr %26, i64 104
  %28 = load ptr, ptr %27, align 8
  %29 = getelementptr inbounds i8, ptr %.32.val, i64 24
  %30 = load i32, ptr %29, align 8
  %31 = sext i32 %30 to i64
  %32 = getelementptr inbounds ptr, ptr %28, i64 %31
  %33 = load ptr, ptr %32, align 8
  %.not = icmp eq ptr %33, %1
  br i1 %.not, label %34, label %54

34:                                               ; preds = %22
  %35 = getelementptr inbounds i8, ptr %.32.val, i64 16
  br label %38

36:                                               ; preds = %2, %2, %2, %2
  tail call void (ptr, ...) @error_exit(ptr noundef nonnull @.str.33, ptr noundef nonnull @.str.34, ptr noundef nonnull @__func__.sema_expr_fold_to_member, ptr noundef nonnull @.str.35, i32 noundef 3665) #14
  unreachable

37:                                               ; preds = %2
  tail call void (ptr, ...) @error_exit(ptr noundef nonnull @.str.33, ptr noundef nonnull @.str.34, ptr noundef nonnull @__func__.sema_expr_fold_to_member, ptr noundef nonnull @.str.35, i32 noundef 3667) #14
  unreachable

38:                                               ; preds = %34, %18
  %.038.ph.in = phi ptr [ %21, %18 ], [ %35, %34 ]
  %.038.ph = load ptr, ptr %.038.ph.in, align 8
  %.pr = load i32, ptr %.038.ph, align 8
  switch i32 %.pr, label %54 [
    i32 0, label %.thread
    i32 1, label %41
    i32 2, label %41
    i32 4, label %41
    i32 5, label %41
    i32 6, label %49
    i32 3, label %50
  ]

.thread:                                          ; preds = %2, %38
  %.0382 = phi ptr [ %.038.ph, %38 ], [ %.32.val, %2 ]
  %39 = getelementptr inbounds i8, ptr %.0382, i64 8
  %40 = load ptr, ptr %39, align 8
  tail call void @expr_rewrite_to_const_zero(ptr noundef %0, ptr noundef %40) #13
  br label %54

41:                                               ; preds = %38, %38, %38, %38
  %42 = getelementptr inbounds i8, ptr %0, i64 24
  %43 = load i16, ptr %42, align 8
  %44 = and i16 %43, -256
  %45 = or disjoint i16 %44, 9
  store i16 %45, ptr %42, align 8
  %46 = getelementptr inbounds i8, ptr %0, i64 32
  store ptr %.32.val, ptr %46, align 8
  %47 = getelementptr inbounds i8, ptr %.32.val, i64 8
  %48 = load ptr, ptr %47, align 8
  store ptr %48, ptr %0, align 8
  br label %54

49:                                               ; preds = %38
  tail call void (ptr, ...) @error_exit(ptr noundef nonnull @.str.33, ptr noundef nonnull @.str.34, ptr noundef nonnull @__func__.sema_expr_fold_to_member, ptr noundef nonnull @.str.35, i32 noundef 3683) #14
  unreachable

50:                                               ; preds = %38
  %51 = getelementptr inbounds i8, ptr %.038.ph, i64 16
  %52 = load ptr, ptr %51, align 8
  %53 = getelementptr inbounds i8, ptr %0, i64 8
  %.sroa.0.0.copyload = load i64, ptr %53, align 8
  tail call void @llvm.memcpy.p0.p0.i64(ptr noundef nonnull align 8 dereferenceable(56) %0, ptr noundef nonnull align 8 dereferenceable(56) %52, i64 56, i1 false)
  store i64 %.sroa.0.0.copyload, ptr %53, align 8
  br label %54

54:                                               ; preds = %38, %.thread, %41, %50, %22
  %.037 = phi i1 [ false, %22 ], [ true, %50 ], [ true, %41 ], [ true, %.thread ], [ true, %38 ]
  ret i1 %.037
}